; ModuleID = '5/569.c'
source_filename = "5/569.c"
target datalayout = "e-m:e-p270:32:32-p271:32:32-p272:64:64-i64:64-f80:128-n8:16:32:64-S128"
target triple = "x86_64-pc-linux-gnu"

@.str = private unnamed_addr constant [3 x i8] c"%f\00", align 1
@.str.1 = private unnamed_addr constant [3 x i8] c"%s\00", align 1
@.str.2 = private unnamed_addr constant [6 x i8] c"error\00", align 1
@.str.3 = private unnamed_addr constant [4 x i8] c"yes\00", align 1
@.str.4 = private unnamed_addr constant [3 x i8] c"no\00", align 1

; Function Attrs: noinline nounwind uwtable
define dso_local i32 @main() #0 {
  %1 = alloca i32, align 4
  %2 = alloca float, align 4
  %3 = alloca float, align 4
  %4 = alloca i32, align 4
  %5 = alloca i32, align 4
  %6 = alloca i32, align 4
  %7 = alloca i32, align 4
  %8 = alloca [501 x i8], align 16
  %9 = alloca [501 x i8], align 16
  %10 = alloca i32, align 4
  store i32 0, i32* %1, align 4
  store i32 0, i32* %6, align 4
  store i32 0, i32* %7, align 4
  %11 = call i32 (i8*, ...) @__isoc99_scanf(i8* getelementptr inbounds ([3 x i8], [3 x i8]* @.str, i64 0, i64 0), float* %2)
  %12 = getelementptr inbounds [501 x i8], [501 x i8]* %8, i64 0, i64 0
  %13 = call i32 (i8*, ...) @__isoc99_scanf(i8* getelementptr inbounds ([3 x i8], [3 x i8]* @.str.1, i64 0, i64 0), i8* %12)
  %14 = getelementptr inbounds [501 x i8], [501 x i8]* %9, i64 0, i64 0
  %15 = call i32 (i8*, ...) @__isoc99_scanf(i8* getelementptr inbounds ([3 x i8], [3 x i8]* @.str.1, i64 0, i64 0), i8* %14)
  %16 = getelementptr inbounds [501 x i8], [501 x i8]* %8, i64 0, i64 0
  %17 = call i64 @strlen(i8* %16) #3
  %18 = trunc i64 %17 to i32
  store i32 %18, i32* %4, align 4
  %19 = getelementptr inbounds [501 x i8], [501 x i8]* %9, i64 0, i64 0
  %20 = call i64 @strlen(i8* %19) #3
  %21 = trunc i64 %20 to i32
  store i32 %21, i32* %5, align 4
  %22 = load i32, i32* %4, align 4
  %23 = load i32, i32* %5, align 4
  %24 = icmp ne i32 %22, %23
  br i1 %24, label %25, label %27

25:                                               ; preds = %0
  %26 = call i32 (i8*, ...) @printf(i8* getelementptr inbounds ([6 x i8], [6 x i8]* @.str.2, i64 0, i64 0))
  br label %137

27:                                               ; preds = %0
  store i32 0, i32* %10, align 4
  br label %28

28:                                               ; preds = %107, %27
  %29 = load i32, i32* %10, align 4
  %30 = load i32, i32* %4, align 4
  %31 = sub nsw i32 %30, 1
  %32 = icmp sle i32 %29, %31
  br i1 %32, label %33, label %110

33:                                               ; preds = %28
  %34 = load i32, i32* %10, align 4
  %35 = sext i32 %34 to i64
  %36 = getelementptr inbounds [501 x i8], [501 x i8]* %8, i64 0, i64 %35
  %37 = load i8, i8* %36, align 1
  %38 = sext i8 %37 to i32
  %39 = icmp eq i32 %38, 65
  br i1 %39, label %61, label %40

40:                                               ; preds = %33
  %41 = load i32, i32* %10, align 4
  %42 = sext i32 %41 to i64
  %43 = getelementptr inbounds [501 x i8], [501 x i8]* %8, i64 0, i64 %42
  %44 = load i8, i8* %43, align 1
  %45 = sext i8 %44 to i32
  %46 = icmp eq i32 %45, 84
  br i1 %46, label %61, label %47

47:                                               ; preds = %40
  %48 = load i32, i32* %10, align 4
  %49 = sext i32 %48 to i64
  %50 = getelementptr inbounds [501 x i8], [501 x i8]* %8, i64 0, i64 %49
  %51 = load i8, i8* %50, align 1
  %52 = sext i8 %51 to i32
  %53 = icmp eq i32 %52, 67
  br i1 %53, label %61, label %54

54:                                               ; preds = %47
  %55 = load i32, i32* %10, align 4
  %56 = sext i32 %55 to i64
  %57 = getelementptr inbounds [501 x i8], [501 x i8]* %8, i64 0, i64 %56
  %58 = load i8, i8* %57, align 1
  %59 = sext i8 %58 to i32
  %60 = icmp eq i32 %59, 71
  br i1 %60, label %61, label %105

61:                                               ; preds = %54, %47, %40, %33
  %62 = load i32, i32* %10, align 4
  %63 = sext i32 %62 to i64
  %64 = getelementptr inbounds [501 x i8], [501 x i8]* %9, i64 0, i64 %63
  %65 = load i8, i8* %64, align 1
  %66 = sext i8 %65 to i32
  %67 = icmp eq i32 %66, 65
  br i1 %67, label %89, label %68

68:                                               ; preds = %61
  %69 = load i32, i32* %10, align 4
  %70 = sext i32 %69 to i64
  %71 = getelementptr inbounds [501 x i8], [501 x i8]* %9, i64 0, i64 %70
  %72 = load i8, i8* %71, align 1
  %73 = sext i8 %72 to i32
  %74 = icmp eq i32 %73, 84
  br i1 %74, label %89, label %75

75:                                               ; preds = %68
  %76 = load i32, i32* %10, align 4
  %77 = sext i32 %76 to i64
  %78 = getelementptr inbounds [501 x i8], [501 x i8]* %9, i64 0, i64 %77
  %79 = load i8, i8* %78, align 1
  %80 = sext i8 %79 to i32
  %81 = icmp eq i32 %80, 67
  br i1 %81, label %89, label %82

82:                                               ; preds = %75
  %83 = load i32, i32* %10, align 4
  %84 = sext i32 %83 to i64
  %85 = getelementptr inbounds [501 x i8], [501 x i8]* %9, i64 0, i64 %84
  %86 = load i8, i8* %85, align 1
  %87 = sext i8 %86 to i32
  %88 = icmp eq i32 %87, 71
  br i1 %88, label %89, label %105

89:                                               ; preds = %82, %75, %68, %61
  %90 = load i32, i32* %10, align 4
  %91 = sext i32 %90 to i64
  %92 = getelementptr inbounds [501 x i8], [501 x i8]* %8, i64 0, i64 %91
  %93 = load i8, i8* %92, align 1
  %94 = sext i8 %93 to i32
  %95 = load i32, i32* %10, align 4
  %96 = sext i32 %95 to i64
  %97 = getelementptr inbounds [501 x i8], [501 x i8]* %9, i64 0, i64 %96
  %98 = load i8, i8* %97, align 1
  %99 = sext i8 %98 to i32
  %100 = icmp eq i32 %94, %99
  br i1 %100, label %101, label %104

101:                                              ; preds = %89
  %102 = load i32, i32* %6, align 4
  %103 = add nsw i32 %102, 1
  store i32 %103, i32* %6, align 4
  br label %104

104:                                              ; preds = %101, %89
  br label %106

105:                                              ; preds = %82, %54
  store i32 1, i32* %7, align 4
  br label %110

106:                                              ; preds = %104
  br label %107

107:                                              ; preds = %106
  %108 = load i32, i32* %10, align 4
  %109 = add nsw i32 %108, 1
  store i32 %109, i32* %10, align 4
  br label %28

110:                                              ; preds = %105, %28
  %111 = load i32, i32* %6, align 4
  %112 = sitofp i32 %111 to float
  %113 = load i32, i32* %4, align 4
  %114 = sitofp i32 %113 to float
  %115 = fdiv float %112, %114
  store float %115, float* %3, align 4
  %116 = load i32, i32* %7, align 4
  %117 = icmp eq i32 %116, 0
  br i1 %117, label %118, label %124

118:                                              ; preds = %110
  %119 = load float, float* %3, align 4
  %120 = load float, float* %2, align 4
  %121 = fcmp ogt float %119, %120
  br i1 %121, label %122, label %124

122:                                              ; preds = %118
  %123 = call i32 (i8*, ...) @printf(i8* getelementptr inbounds ([4 x i8], [4 x i8]* @.str.3, i64 0, i64 0))
  br label %136

124:                                              ; preds = %118, %110
  %125 = load i32, i32* %7, align 4
  %126 = icmp eq i32 %125, 0
  br i1 %126, label %127, label %133

127:                                              ; preds = %124
  %128 = load float, float* %3, align 4
  %129 = load float, float* %2, align 4
  %130 = fcmp ole float %128, %129
  br i1 %130, label %131, label %133

131:                                              ; preds = %127
  %132 = call i32 (i8*, ...) @printf(i8* getelementptr inbounds ([3 x i8], [3 x i8]* @.str.4, i64 0, i64 0))
  br label %135

133:                                              ; preds = %127, %124
  %134 = call i32 (i8*, ...) @printf(i8* getelementptr inbounds ([6 x i8], [6 x i8]* @.str.2, i64 0, i64 0))
  br label %135

135:                                              ; preds = %133, %131
  br label %136

136:                                              ; preds = %135, %122
  br label %137

137:                                              ; preds = %136, %25
  %138 = load i32, i32* %1, align 4
  ret i32 %138
}

declare dso_local i32 @__isoc99_scanf(i8*, ...) #1

; Function Attrs: nounwind readonly
declare dso_local i64 @strlen(i8*) #2

declare dso_local i32 @printf(i8*, ...) #1


!llvm.module.flags = !{!0}
!llvm.ident = !{!1}

!0 = !{i32 1, !"wchar_size", i32 4}
!1 = !{!"clang version 10.0.0-4ubuntu1 "}
